target datalayout = "e-m:e-p270:32:32-p271:32:32-p272:64:64-i64:64-i128:128-f80:128-n8:16:32:64-S128"
target triple = "x86_64-pc-linux-gnu"

%"class.grpc_core::SubchannelKey" = type { %struct.grpc_resolved_address, %"class.grpc_core::ChannelArgs" }
%struct.grpc_resolved_address = type { [128 x i8], i32 }
%"class.grpc_core::ChannelArgs" = type { %"class.grpc_core::AVL" }
%"class.grpc_core::AVL" = type { %"class.grpc_core::RefCountedPtr" }
%"class.grpc_core::RefCountedPtr" = type { ptr }

; Function Attrs: mustprogress nounwind uwtable
define linkonce_odr noundef nonnull align 8 dereferenceable(8) ptr @_ZNK9grpc_core13SubchannelKey4argsEv(ptr noundef nonnull align 8 dereferenceable(144) %0) #8 comdat align 2 {
  %2 = alloca ptr, align 8
  store ptr %0, ptr %2, align 8, !tbaa !3
  %3 = load ptr, ptr %2, align 8
  %4 = getelementptr inbounds nuw %"class.grpc_core::SubchannelKey", ptr %3, i32 0, i32 1
  ret ptr %4
}

; Function Attrs: mustprogress uwtable
define noundef zeroext i1 @_ZNK9grpc_core13SubchannelKeyltERKS0_(ptr noundef nonnull align 8 dereferenceable(144) %0, ptr noundef nonnull align 8 dereferenceable(144) %1) #4 align 2 {
  %3 = alloca i1, align 1
  %4 = alloca ptr, align 8
  %5 = alloca ptr, align 8
  %6 = alloca i32, align 4
  %7 = alloca i32, align 4
  store ptr %0, ptr %4, align 8, !tbaa !3
  store ptr %1, ptr %5, align 8, !tbaa !3
  %8 = load ptr, ptr %4, align 8
  %9 = getelementptr inbounds nuw %"class.grpc_core::SubchannelKey", ptr %8, i32 0, i32 0
  %10 = getelementptr inbounds nuw %struct.grpc_resolved_address, ptr %9, i32 0, i32 1
  %11 = load i32, ptr %10, align 8, !tbaa !16
  %12 = load ptr, ptr %5, align 8, !tbaa !3
  %13 = getelementptr inbounds nuw %"class.grpc_core::SubchannelKey", ptr %12, i32 0, i32 0
  %14 = getelementptr inbounds nuw %struct.grpc_resolved_address, ptr %13, i32 0, i32 1
  %15 = load i32, ptr %14, align 8, !tbaa !16
  %16 = icmp ult i32 %11, %15
  br i1 %16, label %17, label %18

17:                                               ; preds = %2
  store i1 true, ptr %3, align 1
  br label %54

18:                                               ; preds = %2
  %19 = getelementptr inbounds nuw %"class.grpc_core::SubchannelKey", ptr %8, i32 0, i32 0
  %20 = getelementptr inbounds nuw %struct.grpc_resolved_address, ptr %19, i32 0, i32 1
  %21 = load i32, ptr %20, align 8, !tbaa !16
  %22 = load ptr, ptr %5, align 8, !tbaa !3
  %23 = getelementptr inbounds nuw %"class.grpc_core::SubchannelKey", ptr %22, i32 0, i32 0
  %24 = getelementptr inbounds nuw %struct.grpc_resolved_address, ptr %23, i32 0, i32 1
  %25 = load i32, ptr %24, align 8, !tbaa !16
  %26 = icmp ugt i32 %21, %25
  br i1 %26, label %27, label %28

27:                                               ; preds = %18
  store i1 false, ptr %3, align 1
  br label %54

28:                                               ; preds = %18
  call void @llvm.lifetime.start.p0(i64 4, ptr %6) #3
  %29 = getelementptr inbounds nuw %"class.grpc_core::SubchannelKey", ptr %8, i32 0, i32 0
  %30 = getelementptr inbounds nuw %struct.grpc_resolved_address, ptr %29, i32 0, i32 0
  %31 = getelementptr inbounds [128 x i8], ptr %30, i64 0, i64 0
  %32 = load ptr, ptr %5, align 8, !tbaa !3
  %33 = getelementptr inbounds nuw %"class.grpc_core::SubchannelKey", ptr %32, i32 0, i32 0
  %34 = getelementptr inbounds nuw %struct.grpc_resolved_address, ptr %33, i32 0, i32 0
  %35 = getelementptr inbounds [128 x i8], ptr %34, i64 0, i64 0
  %36 = getelementptr inbounds nuw %"class.grpc_core::SubchannelKey", ptr %8, i32 0, i32 0
  %37 = getelementptr inbounds nuw %struct.grpc_resolved_address, ptr %36, i32 0, i32 1
  %38 = load i32, ptr %37, align 8, !tbaa !16
  %39 = zext i32 %38 to i64
  %40 = call i32 @memcmp(ptr noundef %31, ptr noundef %35, i64 noundef %39) #15
  store i32 %40, ptr %6, align 4, !tbaa !14
  %41 = load i32, ptr %6, align 4, !tbaa !14
  %42 = icmp slt i32 %41, 0
  br i1 %42, label %43, label %44

43:                                               ; preds = %28
  store i1 true, ptr %3, align 1
  store i32 1, ptr %7, align 4
  br label %53

44:                                               ; preds = %28
  %45 = load i32, ptr %6, align 4, !tbaa !14
  %46 = icmp sgt i32 %45, 0
  br i1 %46, label %47, label %48

47:                                               ; preds = %44
  store i1 false, ptr %3, align 1
  store i32 1, ptr %7, align 4
  br label %53

48:                                               ; preds = %44
  %49 = getelementptr inbounds nuw %"class.grpc_core::SubchannelKey", ptr %8, i32 0, i32 1
  %50 = load ptr, ptr %5, align 8, !tbaa !3
  %51 = call noundef nonnull align 8 dereferenceable(8) ptr @_ZNK9grpc_core13SubchannelKey4argsEv(ptr noundef nonnull align 8 dereferenceable(144) %50)
  %52 = call noundef zeroext i1 @_ZNK9grpc_core11ChannelArgsltERKS0_(ptr noundef nonnull align 8 dereferenceable(8) %49, ptr noundef nonnull align 8 dereferenceable(8) %51)
  store i1 %52, ptr %3, align 1
  store i32 1, ptr %7, align 4
  br label %53

53:                                               ; preds = %48, %47, %43
  call void @llvm.lifetime.end.p0(i64 4, ptr %6) #3
  br label %54

54:                                               ; preds = %53, %27, %17
  %55 = load i1, ptr %3, align 1
  ret i1 %55
}