; Function Attrs: mustprogress uwtable
define noundef zeroext i1 @_ZNK9grpc_core13SubchannelKeyltERKS0_(ptr noundef nonnull align 8 dereferenceable(144) %0, ptr noundef nonnull align 8 dereferenceable(144) %1) local_unnamed_addr #3 align 2 {
  %3 = getelementptr inbounds nuw i8, ptr %0, i64 128
  %4 = load i32, ptr %3, align 8, !tbaa !9
  %5 = getelementptr inbounds nuw i8, ptr %1, i64 128
  %6 = load i32, ptr %5, align 8, !tbaa !9
  %7 = icmp ult i32 %4, %6
  br i1 %7, label %19, label %8

8:                                                ; preds = %2
  %9 = icmp ugt i32 %4, %6
  br i1 %9, label %19, label %10

10:                                               ; preds = %8
  %11 = zext i32 %4 to i64
  %12 = tail call i32 @memcmp(ptr noundef nonnull %0, ptr noundef nonnull %1, i64 noundef %11) #14
  %13 = icmp slt i32 %12, 0
  br i1 %13, label %19, label %14

14:                                               ; preds = %10
  %.not = icmp eq i32 %12, 0
  br i1 %.not, label %15, label %19

15:                                               ; preds = %14
  %16 = getelementptr inbounds nuw i8, ptr %0, i64 136
  %17 = getelementptr inbounds nuw i8, ptr %1, i64 136
  %18 = tail call noundef zeroext i1 @_ZNK9grpc_core11ChannelArgsltERKS0_(ptr noundef nonnull align 8 dereferenceable(8) %16, ptr noundef nonnull align 8 dereferenceable(8) %17)
  br label %19

19:                                               ; preds = %15, %10, %14, %8, %2
  %.0 = phi i1 [ true, %2 ], [ false, %8 ], [ %18, %15 ], [ true, %10 ], [ false, %14 ]
  ret i1 %.0
}